Certificate:
    Data:
        Version: 3 (0x2)
        Serial Number: 4096 (0x1000)
    Signature Algorithm: sha1WithRSAEncryption
        Issuer: C=US, ST=WA, L=Bellevue, O=Basho Technologies, OU=Development
        Validity
            Not Before: Jan  8 02:19:48 2015 GMT
            Not After : Jan  5 02:19:48 2025 GMT
        Subject: C=US, ST=WA, O=Basho Technologies, OU=Development, CN=riak-test/emailAddress=riakuser@basho.com
        Subject Public Key Info:
            Public Key Algorithm: rsaEncryption
                Public-Key: (2048 bit)
                Modulus:
                    00:d8:4c:ab:f6:35:1c:8a:77:9d:10:03:69:5c:54:
                    62:b5:59:ae:c4:bd:4f:00:c3:6d:d6:3c:6b:b8:e6:
                    22:4b:66:b6:97:e0:85:db:bc:ec:25:e6:9d:f8:9e:
                    89:24:2f:24:46:23:c7:69:81:a1:a8:44:84:70:e5:
                    30:c7:f2:39:aa:aa:65:2c:c3:7c:49:b2:bf:5b:60:
                    85:c6:ae:ba:83:75:8d:e7:b1:f5:d0:f8:31:ef:10:
                    a2:eb:fb:36:9e:53:bc:17:7d:90:f5:45:bf:40:e7:
                    e6:de:f0:24:16:ef:3b:95:c0:32:46:36:94:ba:e1:
                    cc:12:61:bf:ec:17:89:85:8e:c9:1e:5c:1b:5f:cc:
                    b4:89:47:cb:83:67:be:70:7d:32:29:53:ea:a5:32:
                    92:62:b5:7d:34:a0:9b:4a:29:65:1f:83:9e:a6:54:
                    60:1b:d7:40:c7:89:08:4a:c8:08:9a:4a:e2:99:aa:
                    08:fd:1b:ce:90:09:e1:06:67:2f:6b:d2:4c:e1:a8:
                    3c:bd:aa:f2:46:7e:e6:60:d4:c1:10:e2:cc:5f:6c:
                    7c:8b:d5:c5:78:61:cd:27:9f:61:3d:45:10:ce:e2:
                    b1:af:21:a5:2b:9b:ba:73:31:6b:e2:e9:b9:b0:33:
                    bf:af:07:f0:56:4c:10:90:5d:58:19:c3:53:23:df:
                    37:67
                Exponent: 65537 (0x10001)
        X509v3 extensions:
            X509v3 Basic Constraints: 
                CA:FALSE
            Netscape Comment: 
                OpenSSL Generated Certificate
            X509v3 Subject Key Identifier: 
                43:8C:72:EE:BE:5F:FF:BA:F2:7E:73:E9:E5:48:53:8E:DD:28:6B:76
            X509v3 Authority Key Identifier: 
                keyid:9F:94:76:B8:90:9F:01:FB:4D:32:79:C3:5C:D1:51:14:6D:4B:54:17

    Signature Algorithm: sha1WithRSAEncryption
         19:93:48:c9:f8:c1:3b:14:c1:ec:85:13:72:f2:6e:27:36:61:
         a0:dc:54:81:43:4b:95:5a:ef:7c:fc:15:98:01:fb:b7:d7:1b:
         10:67:d3:50:4a:54:f2:b9:7d:cf:a2:92:af:37:22:cc:35:55:
         cc:30:88:96:ee:e2:5b:47:7a:f7:2f:60:d3:0b:d2:19:07:6d:
         52:61:75:48:c4:78:01:b4:7d:01:fb:62:1e:5a:fa:c8:cc:af:
         87:61:ac:2c:d1:36:5a:ca:bf:72:f2:b9:aa:d4:05:75:cd:76:
         be:be:16:64:f2:4b:8f:3c:70:a3:13:df:0c:1d:cf:02:c2:fa:
         57:55:64:91:4e:72:77:e9:67:3e:f9:f9:79:cb:9e:bf:2c:3d:
         61:1c:5a:05:7a:d6:f2:d0:25:d6:80:25:49:5b:47:41:46:10:
         88:c5:ca:00:41:c8:5e:71:fe:39:7a:9f:fe:7d:f0:00:61:08:
         0d:c7:0f:c0:17:b4:3a:02:ff:c2:96:f7:82:16:71:7a:86:a4:
         cf:f2:3a:28:2e:03:86:87:e4:fc:8f:cb:01:9e:06:71:53:90:
         c7:99:73:98:a4:2e:f2:65:4a:a2:93:a3:ef:de:7f:44:94:b9:
         4f:10:53:38:c9:9f:a4:52:d6:1d:4d:e3:dd:53:1a:58:ac:78:
         05:5d:c6:a3
-----BEGIN CERTIFICATE-----
MIID3DCCAsSgAwIBAgICEAAwDQYJKoZIhvcNAQEFBQAwYDELMAkGA1UEBhMCVVMx
CzAJBgNVBAgMAldBMREwDwYDVQQHDAhCZWxsZXZ1ZTEbMBkGA1UECgwSQmFzaG8g
VGVjaG5vbG9naWVzMRQwEgYDVQQLDAtEZXZlbG9wbWVudDAeFw0xNTAxMDgwMjE5
NDhaFw0yNTAxMDUwMjE5NDhaMIGEMQswCQYDVQQGEwJVUzELMAkGA1UECAwCV0Ex
GzAZBgNVBAoMEkJhc2hvIFRlY2hub2xvZ2llczEUMBIGA1UECwwLRGV2ZWxvcG1l
bnQxEjAQBgNVBAMMCXJpYWstdGVzdDEhMB8GCSqGSIb3DQEJARYScmlha3VzZXJA
YmFzaG8uY29tMIIBIjANBgkqhkiG9w0BAQEFAAOCAQ8AMIIBCgKCAQEA2Eyr9jUc
inedEANpXFRitVmuxL1PAMNt1jxruOYiS2a2l+CF27zsJead+J6JJC8kRiPHaYGh
qESEcOUwx/I5qqplLMN8SbK/W2CFxq66g3WN57H10Pgx7xCi6/s2nlO8F32Q9UW/
QOfm3vAkFu87lcAyRjaUuuHMEmG/7BeJhY7JHlwbX8y0iUfLg2e+cH0yKVPqpTKS
YrV9NKCbSillH4OeplRgG9dAx4kISsgImkrimaoI/RvOkAnhBmcva9JM4ag8vary
Rn7mYNTBEOLMX2x8i9XFeGHNJ59hPUUQzuKxryGlK5u6czFr4um5sDO/rwfwVkwQ
kF1YGcNTI983ZwIDAQABo3sweTAJBgNVHRMEAjAAMCwGCWCGSAGG+EIBDQQfFh1P
cGVuU1NMIEdlbmVyYXRlZCBDZXJ0aWZpY2F0ZTAdBgNVHQ4EFgQUQ4xy7r5f/7ry
fnPp5UhTjt0oa3YwHwYDVR0jBBgwFoAUn5R2uJCfAftNMnnDXNFRFG1LVBcwDQYJ
KoZIhvcNAQEFBQADggEBABmTSMn4wTsUweyFE3Lybic2YaDcVIFDS5Va73z8FZgB
+7fXGxBn01BKVPK5fc+ikq83Isw1VcwwiJbu4ltHevcvYNML0hkHbVJhdUjEeAG0
fQH7Yh5a+sjMr4dhrCzRNlrKv3LyuarUBXXNdr6+FmTyS488cKMT3wwdzwLC+ldV
ZJFOcnfpZz75+XnLnr8sPWEcWgV61vLQJdaAJUlbR0FGEIjFygBByF5x/jl6n/59
8ABhCA3HD8AXtDoC/8KW94IWcXqGpM/yOiguA4aH5PyPywGeBnFTkMeZc5ikLvJl
SqKTo+/ef0SUuU8QUzjJn6RS1h1N491TGliseAVdxqM=
-----END CERTIFICATE-----
