Certificate:
    Data:
        Version: 3 (0x2)
        Serial Number: 4097 (0x1001)
    Signature Algorithm: sha1WithRSAEncryption
        Issuer: C=US, ST=WA, L=Bellevue, O=Basho Technologies, OU=Development
        Validity
            Not Before: Jan  7 20:16:25 2015 GMT
            Not After : Jan  4 20:16:25 2025 GMT
        Subject: C=US, ST=WA, O=Basho Technologies, OU=CliServ, CN=riak-test/emailAddress=riakuser@basho.com
        Subject Public Key Info:
            Public Key Algorithm: rsaEncryption
                Public-Key: (2048 bit)
                Modulus:
                    00:a6:0a:70:d7:05:c7:a3:f0:83:23:d3:8b:19:6b:
                    14:2e:2f:7c:15:18:8b:2f:bd:75:b9:72:22:3e:55:
                    31:12:b6:3f:81:9b:25:ce:1c:f0:48:96:ca:3d:b0:
                    b9:01:4f:37:2e:f6:cc:da:5e:b9:e4:fe:fd:45:f8:
                    e9:a9:49:77:0a:66:76:5a:83:47:78:13:f0:51:bb:
                    09:60:ec:f2:11:7d:6a:d2:b7:52:f2:28:ca:d9:9b:
                    4f:76:49:b8:39:ad:2e:a3:89:ec:6c:b9:f9:e1:ac:
                    a6:b5:f2:31:29:94:39:b4:fd:99:e6:ff:48:b0:b6:
                    19:1e:b5:7e:bd:88:2e:27:7f:f2:c2:14:5c:06:9a:
                    ef:ea:76:07:bd:fb:ea:e3:eb:88:35:0f:a4:87:55:
                    3f:e4:01:eb:db:3b:d5:1f:ed:03:0e:b0:da:a2:ee:
                    a8:b9:b5:07:82:3b:a1:b5:11:77:aa:5a:b2:5d:06:
                    fc:5e:3b:6d:94:9b:8f:26:3f:41:c4:52:3e:63:a8:
                    5e:56:81:f0:26:bf:b7:52:43:58:04:38:08:df:7a:
                    c3:4a:40:2d:a9:65:4b:d1:ba:e3:52:f2:b5:f7:b4:
                    3b:0f:96:71:a7:44:ce:7f:8e:5b:b0:3a:ee:8f:2c:
                    02:f1:57:c7:75:78:05:73:65:e3:41:63:87:4a:42:
                    b0:41
                Exponent: 65537 (0x10001)
        X509v3 extensions:
            X509v3 Basic Constraints: 
                CA:FALSE
            Netscape Comment: 
                OpenSSL Generated Certificate
            X509v3 Subject Key Identifier: 
                DE:4A:05:F8:34:E7:EE:B4:47:BC:D7:B4:B7:40:7B:4A:33:9E:19:EA
            X509v3 Authority Key Identifier: 
                keyid:9F:94:76:B8:90:9F:01:FB:4D:32:79:C3:5C:D1:51:14:6D:4B:54:17

    Signature Algorithm: sha1WithRSAEncryption
         93:30:2b:91:63:0f:88:fe:57:37:12:d5:ad:ca:c0:34:92:77:
         f0:aa:90:45:61:ce:2f:84:4f:6c:fa:f8:f3:55:1e:e5:78:ed:
         6f:41:56:e4:f5:1f:7a:77:e8:c7:1b:06:0d:2b:26:c3:fc:c6:
         40:91:19:ff:b4:1b:0d:1e:d3:6a:a0:7c:0c:8e:1c:5c:fd:b4:
         d3:f0:7e:15:a7:0e:d8:9e:b1:cf:77:ae:e3:88:6c:9d:5d:83:
         ab:9a:0e:4a:11:3b:32:72:a9:9e:a9:eb:d5:35:42:ef:a1:b7:
         9c:96:08:ec:eb:58:f2:80:6b:61:e9:96:92:fb:d3:f3:13:42:
         dc:42:d5:8a:90:e9:e6:1d:c1:ae:36:ff:19:58:95:98:cc:4a:
         7f:0a:8c:9b:80:2d:b5:f9:be:33:12:6e:55:b1:77:bd:1a:36:
         e2:bc:16:7b:44:29:61:ce:c2:2f:1f:da:94:6a:e9:7a:36:49:
         b2:94:d2:18:87:34:2e:59:f7:16:9e:b1:ac:3e:54:8d:33:82:
         07:68:3a:38:e2:fa:8d:67:8b:c5:20:86:f9:fa:29:d0:3f:86:
         47:1a:58:c1:96:e3:1b:e3:88:a0:22:93:9c:9d:e2:d9:7b:28:
         85:62:e3:8e:6e:49:61:14:3d:3d:6e:0f:33:5f:71:2e:b0:30:
         ed:10:28:c4
-----BEGIN CERTIFICATE-----
MIID2DCCAsCgAwIBAgICEAEwDQYJKoZIhvcNAQEFBQAwYDELMAkGA1UEBhMCVVMx
CzAJBgNVBAgMAldBMREwDwYDVQQHDAhCZWxsZXZ1ZTEbMBkGA1UECgwSQmFzaG8g
VGVjaG5vbG9naWVzMRQwEgYDVQQLDAtEZXZlbG9wbWVudDAeFw0xNTAxMDcyMDE2
MjVaFw0yNTAxMDQyMDE2MjVaMIGAMQswCQYDVQQGEwJVUzELMAkGA1UECAwCV0Ex
GzAZBgNVBAoMEkJhc2hvIFRlY2hub2xvZ2llczEQMA4GA1UECwwHQ2xpU2VydjES
MBAGA1UEAwwJcmlhay10ZXN0MSEwHwYJKoZIhvcNAQkBFhJyaWFrdXNlckBiYXNo
by5jb20wggEiMA0GCSqGSIb3DQEBAQUAA4IBDwAwggEKAoIBAQCmCnDXBcej8IMj
04sZaxQuL3wVGIsvvXW5ciI+VTEStj+BmyXOHPBIlso9sLkBTzcu9szaXrnk/v1F
+OmpSXcKZnZag0d4E/BRuwlg7PIRfWrSt1LyKMrZm092Sbg5rS6jiexsufnhrKa1
8jEplDm0/Znm/0iwthketX69iC4nf/LCFFwGmu/qdge9++rj64g1D6SHVT/kAevb
O9Uf7QMOsNqi7qi5tQeCO6G1EXeqWrJdBvxeO22Um48mP0HEUj5jqF5WgfAmv7dS
Q1gEOAjfesNKQC2pZUvRuuNS8rX3tDsPlnGnRM5/jluwOu6PLALxV8d1eAVzZeNB
Y4dKQrBBAgMBAAGjezB5MAkGA1UdEwQCMAAwLAYJYIZIAYb4QgENBB8WHU9wZW5T
U0wgR2VuZXJhdGVkIENlcnRpZmljYXRlMB0GA1UdDgQWBBTeSgX4NOfutEe817S3
QHtKM54Z6jAfBgNVHSMEGDAWgBSflHa4kJ8B+00yecNc0VEUbUtUFzANBgkqhkiG
9w0BAQUFAAOCAQEAkzArkWMPiP5XNxLVrcrANJJ38KqQRWHOL4RPbPr481Ue5Xjt
b0FW5PUfenfoxxsGDSsmw/zGQJEZ/7QbDR7TaqB8DI4cXP200/B+FacO2J6xz3eu
44hsnV2Dq5oOShE7MnKpnqnr1TVC76G3nJYI7OtY8oBrYemWkvvT8xNC3ELVipDp
5h3Brjb/GViVmMxKfwqMm4Attfm+MxJuVbF3vRo24rwWe0QpYc7CLx/alGrpejZJ
spTSGIc0Lln3Fp6xrD5UjTOCB2g6OOL6jWeLxSCG+fop0D+GRxpYwZbjG+OIoCKT
nJ3i2XsohWLjjm5JYRQ9PW4PM19xLrAw7RAoxA==
-----END CERTIFICATE-----
