Certificate:
    Data:
        Version: 3 (0x2)
        Serial Number: 4096 (0x1000)
    Signature Algorithm: sha1WithRSAEncryption
        Issuer: C=US, ST=WA, L=Bellevue, O=Basho Technologies, OU=Development
        Validity
            Not Before: Jan  7 19:31:48 2015 GMT
            Not After : Jan  4 19:31:48 2025 GMT
        Subject: C=US, ST=WA, O=Basho Technologies, OU=Development, CN=riakuser/emailAddress=riakuser@myorg.com
        Subject Public Key Info:
            Public Key Algorithm: rsaEncryption
                Public-Key: (2048 bit)
                Modulus:
                    00:b5:86:e3:47:af:8b:d2:38:1b:0d:5d:7c:6b:7a:
                    00:7f:e2:18:da:91:a2:89:21:89:7c:b8:a9:e2:87:
                    91:52:dd:e5:b1:87:18:71:57:1f:09:4a:66:ad:f4:
                    8a:a2:7f:2c:8a:34:c8:c4:c8:59:fc:66:4f:c7:bd:
                    22:26:0f:ad:cf:19:05:38:c7:e2:bd:12:c1:2f:f2:
                    55:bb:95:4b:7f:5c:da:1f:1e:13:d0:e3:72:05:cd:
                    1f:dd:0b:66:57:9f:4c:1c:c2:2b:f3:cd:e6:49:0a:
                    ca:20:8b:90:81:dc:f3:7d:91:92:e6:59:b6:a2:c4:
                    9a:ca:11:ea:6a:b8:86:c8:b4:60:29:a1:5a:2e:12:
                    6d:7a:7d:1d:3f:7a:71:e4:b7:3f:6a:6e:56:d3:79:
                    29:c8:ef:a2:0e:48:40:66:14:0d:67:4f:f6:54:97:
                    78:9e:66:64:a1:3d:0b:ea:76:87:82:2c:6c:76:09:
                    dd:83:df:5b:54:73:72:52:28:1b:25:52:1d:66:91:
                    a9:72:0c:5d:d8:ab:73:07:c7:6f:82:85:a2:66:bb:
                    ef:c3:47:95:76:a2:ce:37:29:19:ba:dc:25:db:cb:
                    ed:b3:d2:e5:21:3d:23:77:62:d5:a1:f4:a5:e1:dc:
                    18:c6:0f:37:e7:a5:f7:08:b3:f7:30:30:36:42:e2:
                    eb:6f
                Exponent: 65537 (0x10001)
        X509v3 extensions:
            X509v3 Basic Constraints: 
                CA:FALSE
            Netscape Comment: 
                OpenSSL Generated Certificate
            X509v3 Subject Key Identifier: 
                18:59:86:16:CB:D4:26:E0:D7:27:0F:8D:05:19:40:3B:DD:02:88:AF
            X509v3 Authority Key Identifier: 
                keyid:9F:94:76:B8:90:9F:01:FB:4D:32:79:C3:5C:D1:51:14:6D:4B:54:17

    Signature Algorithm: sha1WithRSAEncryption
         17:f2:df:36:f2:b3:e8:28:fb:fd:a2:b2:14:45:09:eb:46:9a:
         ba:66:e1:c9:fd:df:e2:83:b3:9f:90:29:a4:be:2c:82:0a:10:
         5b:fb:44:9c:d0:bd:84:81:ee:81:3a:87:fe:1f:cd:2c:da:ce:
         3b:db:a8:5c:6a:bc:4d:ac:99:37:f4:59:78:6d:65:df:86:be:
         48:ec:66:01:65:86:70:3a:dc:b6:b3:c2:fe:ea:f9:4a:9d:1d:
         d1:2f:4f:87:1e:11:06:c0:97:25:01:c8:91:50:f6:3c:ff:a7:
         20:50:68:89:66:d3:f3:ed:96:a6:da:d5:be:67:a0:f5:d0:82:
         b8:43:92:ea:bf:73:9e:da:b8:3a:b2:3d:24:2d:dd:a0:2a:43:
         94:1d:63:4d:7a:da:1f:a9:2c:1d:69:85:a8:f1:74:98:4a:38:
         51:61:4a:ca:aa:14:5f:29:20:3d:dd:3c:b0:fc:66:63:0a:9d:
         6e:4b:af:40:ac:8c:a3:28:d1:ed:dc:e8:fe:30:8d:f0:4b:b5:
         58:15:32:f0:21:25:fd:32:a6:00:58:4c:77:a2:b5:ec:73:2a:
         62:7f:d9:98:82:51:30:53:68:8d:b7:a0:e4:30:a1:2a:dc:48:
         36:18:53:1d:2c:79:a6:a3:82:fc:61:cf:2e:94:e2:b7:7a:a7:
         3a:35:a3:26
-----BEGIN CERTIFICATE-----
MIID2zCCAsOgAwIBAgICEAAwDQYJKoZIhvcNAQEFBQAwYDELMAkGA1UEBhMCVVMx
CzAJBgNVBAgMAldBMREwDwYDVQQHDAhCZWxsZXZ1ZTEbMBkGA1UECgwSQmFzaG8g
VGVjaG5vbG9naWVzMRQwEgYDVQQLDAtEZXZlbG9wbWVudDAeFw0xNTAxMDcxOTMx
NDhaFw0yNTAxMDQxOTMxNDhaMIGDMQswCQYDVQQGEwJVUzELMAkGA1UECAwCV0Ex
GzAZBgNVBAoMEkJhc2hvIFRlY2hub2xvZ2llczEUMBIGA1UECwwLRGV2ZWxvcG1l
bnQxETAPBgNVBAMMCHJpYWt1c2VyMSEwHwYJKoZIhvcNAQkBFhJyaWFrdXNlckBt
eW9yZy5jb20wggEiMA0GCSqGSIb3DQEBAQUAA4IBDwAwggEKAoIBAQC1huNHr4vS
OBsNXXxregB/4hjakaKJIYl8uKnih5FS3eWxhxhxVx8JSmat9IqifyyKNMjEyFn8
Zk/HvSImD63PGQU4x+K9EsEv8lW7lUt/XNofHhPQ43IFzR/dC2ZXn0wcwivzzeZJ
Csogi5CB3PN9kZLmWbaixJrKEepquIbItGApoVouEm16fR0/enHktz9qblbTeSnI
76IOSEBmFA1nT/ZUl3ieZmShPQvqdoeCLGx2Cd2D31tUc3JSKBslUh1mkalyDF3Y
q3MHx2+ChaJmu+/DR5V2os43KRm63CXby+2z0uUhPSN3YtWh9KXh3BjGDzfnpfcI
s/cwMDZC4utvAgMBAAGjezB5MAkGA1UdEwQCMAAwLAYJYIZIAYb4QgENBB8WHU9w
ZW5TU0wgR2VuZXJhdGVkIENlcnRpZmljYXRlMB0GA1UdDgQWBBQYWYYWy9Qm4Ncn
D40FGUA73QKIrzAfBgNVHSMEGDAWgBSflHa4kJ8B+00yecNc0VEUbUtUFzANBgkq
hkiG9w0BAQUFAAOCAQEAF/LfNvKz6Cj7/aKyFEUJ60aaumbhyf3f4oOzn5AppL4s
ggoQW/tEnNC9hIHugTqH/h/NLNrOO9uoXGq8TayZN/RZeG1l34a+SOxmAWWGcDrc
trPC/ur5Sp0d0S9Phx4RBsCXJQHIkVD2PP+nIFBoiWbT8+2WptrVvmeg9dCCuEOS
6r9zntq4OrI9JC3doCpDlB1jTXraH6ksHWmFqPF0mEo4UWFKyqoUXykgPd08sPxm
YwqdbkuvQKyMoyjR7dzo/jCN8Eu1WBUy8CEl/TKmAFhMd6K17HMqYn/ZmIJRMFNo
jbeg5DChKtxINhhTHSx5pqOC/GHPLpTit3qnOjWjJg==
-----END CERTIFICATE-----
